(lp1
(lp2
VHangzhou, Zhejiang, China
p3
a(dp4
Vlat
p5
F30.274084999999999
sVlng
p6
F120.15506999999999
saa(lp7
VNingbo, Zhejiang, China
p8
a(dp9
Vlat
p10
F29.868335999999999
sVlng
p11
F121.54398999999999
saa(lp12
VWenzhou, Zhejiang, China
p13
a(dp14
Vlat
p15
F27.993828000000001
sVlng
p16
F120.69936199999999
saa(lp17
VJiaxing, Zhejiang, China
p18
a(dp19
Vlat
p20
F30.753924000000001
sVlng
p21
F120.758543
saa(lp22
VHuzhou, Zhejiang, China
p23
a(dp24
Vlat
p25
F30.894348000000001
sVlng
p26
F120.086823
saa(lp27
VShaoxing, Zhejiang, China
p28
a(dp29
Vlat
p30
F29.995761999999999
sVlng
p31
F120.58610899999999
saa(lp32
VJinhua, Zhejiang, China
p33
a(dp34
Vlat
p35
F29.079174999999999
sVlng
p36
F119.64742099999999
saa(lp37
VQuzhou, Zhejiang, China
p38
a(dp39
Vlat
p40
F28.970079999999999
sVlng
p41
F118.85945700000001
saa(lp42
VZhoushan, Zhejiang, China
p43
a(dp44
Vlat
p45
F29.98529499999999
sVlng
p46
F122.207216
saa(lp47
VTaizhou, Zhejiang, China
p48
a(dp49
Vlat
p50
F28.656379999999999
sVlng
p51
F121.42076
saa(lp52
VXiaoshan, Hangzhou, Zhejiang, China
p53
a(dp54
Vlat
p55
F30.168016000000001
sVlng
p56
F120.414929
saa(lp57
VJiande, Hangzhou, Zhejiang, China
p58
a(dp59
Vlat
p60
F29.474871
sVlng
p61
F119.281164
saa(lp62
VFuyang, Hangzhou, Zhejiang, China
p63
a(dp64
Vlat
p65
F30.048691999999999
sVlng
p66
F119.960076
saa(lp67
VYongning Rd, Yuhang Qu, Hangzhou Shi, Zhejiang Sheng, China
p68
a(dp69
Vlat
p70
F30.468259499999998
sVlng
p71
F120.308662
saa(lp72
VLin'an, Hangzhou, Zhejiang, China
p73
a(dp74
Vlat
p75
F30.233872999999999
sVlng
p76
F119.724733
saa(lp77
VYuyao, Ningbo, Zhejiang, China
p78
a(dp79
Vlat
p80
F30.037192000000001
sVlng
p81
F121.154634
saa(lp82
VCixi, Ningbo, Zhejiang, China
p83
a(dp84
Vlat
p85
F30.169664999999998
sVlng
p86
F121.26657899999999
saa(lp87
VFenghua, Ningbo, Zhejiang, China
p88
a(dp89
Vlat
p90
F29.655142999999999
sVlng
p91
F121.40699499999999
saa(lp92
VRui'an, Wenzhou, Zhejiang, China
p93
a(dp94
Vlat
p95
F27.778656999999999
sVlng
p96
F120.655148
saa(lp97
VDeqing, Huzhou, Zhejiang, China
p98
a(dp99
Vlat
p100
F30.623882999999999
sVlng
p101
F120.28901500000001
saa(lp102
VHaining, Jiaxing, Zhejiang, China
p103
a(dp104
Vlat
p105
F30.510659
sVlng
p106
F120.680757
saa(lp107
VPinghu, Jiaxing, Zhejiang, China
p108
a(dp109
Vlat
p110
F30.677233000000001
sVlng
p111
F121.015142
saa(lp112
VTongxiang, Jiaxing, Zhejiang, China
p113
a(dp114
Vlat
p115
F30.630172999999999
sVlng
p116
F120.565099
saa(lp117
VZhuji, Shaoxing, Zhejiang, China
p118
a(dp119
Vlat
p120
F29.708691999999999
sVlng
p121
F120.246863
saa(lp122
VShangyu, Shaoxing, Zhejiang, China
p123
a(dp124
Vlat
p125
F30.033120999999991
sVlng
p126
F120.868122
saa(lp127
VShengzhou, Shaoxing, Zhejiang, China
p128
a(dp129
Vlat
p130
F29.561409999999999
sVlng
p131
F120.83102599999999
saa(lp132
VLanxi, Jinhua, Zhejiang, China
p133
a(dp134
Vlat
p135
F29.208919000000002
sVlng
p136
F119.460526
saa(lp137
VYiwu, Jinhua, Zhejiang, China
p138
a(dp139
Vlat
p140
F29.306757000000001
sVlng
p141
F120.07514
saa(lp142
VDongyang, Jinhua, Zhejiang, China
p143
a(dp144
Vlat
p145
F29.289648
sVlng
p146
F120.24156600000001
saa(lp147
VYongkang, Jinhua, Zhejiang, China
p148
a(dp149
Vlat
p150
F28.888555
sVlng
p151
F120.047651
saa(lp152
VJiangshan, Quzhou, Zhejiang, China
p153
a(dp154
Vlat
p155
F28.737223
sVlng
p156
F118.626974
saa(lp157
VWenling, Taizhou, Zhejiang, China
p158
a(dp159
Vlat
p160
F28.372506000000001
sVlng
p161
F121.385604
saa(lp162
VLinhai, Taizhou, Zhejiang, China
p163
a(dp164
Vlat
p165
F28.858457000000001
sVlng
p166
F121.14504599999999
saa(lp167
VLishui, Zhejiang, China
p168
a(dp169
Vlat
p170
F28.46763
sVlng
p171
F119.92279600000001
saa(lp172
VLongquan, Lishui, Zhejiang, China
p173
a(dp174
Vlat
p175
F28.074649999999998
sVlng
p176
F119.141474
saa(lp177
VShanghai, China
p178
a(dp179
Vlat
p180
F31.230416000000002
sVlng
p181
F121.47370100000001
saa(lp182
VNanjing, Jiangsu, China
p183
a(dp184
Vlat
p185
F32.060254999999998
sVlng
p186
F118.79687699999999
saa(lp187
VWuxi, Jiangsu, China
p188
a(dp189
Vlat
p190
F31.49117
sVlng
p191
F120.31191
saa(lp192
VXuzhou, Jiangsu, China
p193
a(dp194
Vlat
p195
F34.205767999999999
sVlng
p196
F117.28412400000001
saa(lp197
VChangzhou, Jiangsu, China
p198
a(dp199
Vlat
p200
F31.811226000000001
sVlng
p201
F119.974062
saa(lp202
VSuzhou, Jiangsu, China
p203
a(dp204
Vlat
p205
F31.298978999999999
sVlng
p206
F120.58529
saa(lp207
VNantong, Jiangsu, China
p208
a(dp209
Vlat
p210
F31.980172
sVlng
p211
F120.894291
saa(lp212
VLianyungang, Jiangsu, China
p213
a(dp214
Vlat
p215
F34.596653000000003
sVlng
p216
F119.221611
saa(lp217
V9 Xueyuan Rd, Qinghe Qu, Huaian Shi, Jiangsu Sheng, China, 223001
p218
a(dp219
Vlat
p220
F33.598607000000001
sVlng
p221
F119.0033924
saa(lp222
VYancheng, Jiangsu, China
p223
a(dp224
Vlat
p225
F33.347315999999999
sVlng
p226
F120.16365999999999
saa(lp227
VYangzhou, Jiangsu, China
p228
a(dp229
Vlat
p230
F32.394213000000001
sVlng
p231
F119.412947
saa(lp232
VZhenjiang, Jiangsu, China
p233
a(dp234
Vlat
p235
F32.187849
sVlng
p236
F119.425836
saa(lp237
VTaizhou, Jiangsu, China
p238
a(dp239
Vlat
p240
F32.455536000000002
sVlng
p241
F119.922933
saa(lp242
V745 Country Rd, Shuyang Xian, Suqian Shi, Jiangsu Sheng, China
p243
a(dp244
Vlat
p245
F34.314737200000003
sVlng
p246
F118.901079
saa.